; Function Attrs: mustprogress uwtable
define dso_local void @_ZN4enki13TaskScheduler10InitializeEj(ptr noundef nonnull align 8 dereferenceable(220) %0, i32 noundef %1) local_unnamed_addr #0 align 2 {
  tail call void @_ZN4enki13TaskScheduler11StopThreadsEb(ptr noundef nonnull align 8 dereferenceable(220) %0, i1 noundef zeroext true)
  %3 = add i32 %1, -1
  %4 = getelementptr inbounds nuw i8, ptr %0, i64 120
  store i32 %3, ptr %4, align 8, !tbaa !82
  %5 = getelementptr inbounds nuw i8, ptr %0, i64 124
  store i32 0, ptr %5, align 4, !tbaa !59
  tail call void @_ZN4enki13TaskScheduler12StartThreadsEv(ptr noundef nonnull align 8 dereferenceable(220) %0)
  ret void
}